target datalayout = "e-m:e-p270:32:32-p271:32:32-p272:64:64-i64:64-i128:128-f80:128-n8:16:32:64-S128"
target triple = "x86_64-pc-linux-gnu"

%"class.std::__cxx11::basic_string" = type { %"struct.std::__cxx11::basic_string<char>::_Alloc_hider", i64, %union.anon }
%"struct.std::__cxx11::basic_string<char>::_Alloc_hider" = type { ptr }
%union.anon = type { i64, [8 x i8] }
%"class.gmx::ColvarsOptions" = type { %"class.gmx::IMdpOptionProvider", i8, %"class.std::__cxx11::basic_string", %"class.std::__cxx11::basic_string", %"class.std::__cxx11::basic_string", %"class.std::__cxx11::basic_string", %"class.std::__cxx11::basic_string", %"class.std::__cxx11::basic_string", %"class.std::__cxx11::basic_string", %"class.std::__cxx11::basic_string", i32, %"class.std::__cxx11::basic_string", %struct.t_atoms, %"class.gmx::ArrayRef", i32, [3 x [3 x float]], %"class.std::vector", %"class.std::map", float, ptr, %"class.std::__cxx11::basic_string" }
%"class.gmx::IMdpOptionProvider" = type { ptr }
%struct.t_atoms = type { i32, ptr, ptr, ptr, ptr, i32, ptr, ptr, i8, i8, i8, i8, i8 }
%"class.gmx::ArrayRef" = type { %"struct.gmx::ArrayRefIter", %"struct.gmx::ArrayRefIter" }
%"struct.gmx::ArrayRefIter" = type { ptr }
%"class.std::vector" = type { %"struct.std::_Vector_base" }
%"struct.std::_Vector_base" = type { %"struct.std::_Vector_base<gmx::BasicVector<float>, std::allocator<gmx::BasicVector<float>>>::_Vector_impl" }
%"struct.std::_Vector_base<gmx::BasicVector<float>, std::allocator<gmx::BasicVector<float>>>::_Vector_impl" = type { %"struct.std::_Vector_base<gmx::BasicVector<float>, std::allocator<gmx::BasicVector<float>>>::_Vector_impl_data" }
%"struct.std::_Vector_base<gmx::BasicVector<float>, std::allocator<gmx::BasicVector<float>>>::_Vector_impl_data" = type { ptr, ptr, ptr }
%"class.std::map" = type { %"class.std::_Rb_tree" }
%"class.std::_Rb_tree" = type { %"struct.std::_Rb_tree<std::__cxx11::basic_string<char>, std::pair<const std::__cxx11::basic_string<char>, std::__cxx11::basic_string<char>>, std::_Select1st<std::pair<const std::__cxx11::basic_string<char>, std::__cxx11::basic_string<char>>>, std::less<std::__cxx11::basic_string<char>>>::_Rb_tree_impl" }
%"struct.std::_Rb_tree<std::__cxx11::basic_string<char>, std::pair<const std::__cxx11::basic_string<char>, std::__cxx11::basic_string<char>>, std::_Select1st<std::pair<const std::__cxx11::basic_string<char>, std::__cxx11::basic_string<char>>>, std::less<std::__cxx11::basic_string<char>>>::_Rb_tree_impl" = type { [8 x i8], %"struct.std::_Rb_tree_header" }
%"struct.std::_Rb_tree_header" = type { %"struct.std::_Rb_tree_node_base", i64 }
%"struct.std::_Rb_tree_node_base" = type { i32, ptr, ptr, ptr }
%class.anon.93 = type { i8 }

@.str.20 = private unnamed_addr constant [8 x i8] c"logger_\00", align 1
@.str.21 = private unnamed_addr constant [35 x i8] c"Logger not set for ColvarsOptions.\00", align 1
@"__PRETTY_FUNCTION__._ZZNK3gmx14ColvarsOptions6loggerEvENK3$_0clEv" = private unnamed_addr constant [74 x i8] c"auto gmx::ColvarsOptions::logger()::(anonymous class)::operator()() const\00", align 1
@.str.22 = private unnamed_addr constant [147 x i8] c"generated/home/dtcxzyw/WorkSpace/Projects/compilers/llvm-opt-benchmark/bench/gromacs/gromacs/src/gromacs/applied_forces/colvars/colvarsoptions.cpp\00", align 1

; Function Attrs: inlinehint mustprogress uwtable
define internal void @"_ZZNK3gmx14ColvarsOptions6loggerEvENK3$_0clEv"(ptr noundef nonnull align 1 dereferenceable(1) %0) #8 align 2 {
  %2 = alloca ptr, align 8
  store ptr %0, ptr %2, align 8, !tbaa !11
  call void @_ZN3gmx8internal13assertHandlerEPKcS2_S2_S2_i(ptr noundef @.str.20, ptr noundef @.str.21, ptr noundef @"__PRETTY_FUNCTION__._ZZNK3gmx14ColvarsOptions6loggerEvENK3$_0clEv", ptr noundef @.str.22, i32 noundef 156) #24
  unreachable
}

; Function Attrs: mustprogress uwtable
define noundef nonnull align 8 dereferenceable(40) ptr @_ZNK3gmx14ColvarsOptions6loggerEv(ptr noundef nonnull align 8 dereferenceable(560) %0) #0 align 2 {
  %2 = alloca ptr, align 8
  %3 = alloca %class.anon.93, align 1
  store ptr %0, ptr %2, align 8, !tbaa !4
  %4 = load ptr, ptr %2, align 8
  %5 = getelementptr inbounds nuw %"class.gmx::ColvarsOptions", ptr %4, i32 0, i32 19
  %6 = load ptr, ptr %5, align 8, !tbaa !408
  %7 = icmp ne ptr %6, null
  call void @llvm.lifetime.start.p0(i64 1, ptr %3) #5
  br i1 %7, label %8, label %9

8:                                                ; preds = %1
  br label %10

9:                                                ; preds = %1
  call void @"_ZZNK3gmx14ColvarsOptions6loggerEvENK3$_0clEv"(ptr noundef nonnull align 1 dereferenceable(1) %3)
  br label %10

10:                                               ; preds = %9, %8
  call void @llvm.lifetime.end.p0(i64 1, ptr %3) #5
  %11 = getelementptr inbounds nuw %"class.gmx::ColvarsOptions", ptr %4, i32 0, i32 19
  %12 = load ptr, ptr %11, align 8, !tbaa !408
  ret ptr %12
}