; Function Attrs: mustprogress uwtable
define noundef nonnull align 8 dereferenceable(40) ptr @_ZNK3gmx14ColvarsOptions6loggerEv(ptr noundef nonnull readonly align 8 captures(none) dereferenceable(560) %0) local_unnamed_addr #0 align 2 {
  %2 = getelementptr inbounds nuw i8, ptr %0, i64 520
  %3 = load ptr, ptr %2, align 8, !tbaa !295
  %.not = icmp eq ptr %3, null
  br i1 %.not, label %4, label %5

4:                                                ; preds = %1
  tail call void @_ZN3gmx8internal13assertHandlerEPKcS2_S2_S2_i(ptr noundef nonnull @.str.20, ptr noundef nonnull @.str.21, ptr noundef nonnull @"__PRETTY_FUNCTION__._ZZNK3gmx14ColvarsOptions6loggerEvENK3$_0clEv", ptr noundef nonnull @.str.22, i32 noundef 156) #28
  unreachable

5:                                                ; preds = %1
  ret ptr %3
}